target datalayout = "e-m:e-p270:32:32-p271:32:32-p272:64:64-i64:64-i128:128-f80:128-n8:16:32:64-S128"
target triple = "x86_64-pc-linux-gnu"

@_real_page_size = internal global i64 4096, align 8
@stderr = external global ptr, align 8
@.str.4 = private unnamed_addr constant [27 x i8] c"\0Amunmap() failed: [%d] %s\0A\00", align 1
@zend_mm_use_huge_pages = internal global i8 0, align 1

; Function Attrs: nounwind uwtable
define internal void @zend_mm_munmap(ptr noundef %0, i64 noundef %1) #0 {
  %3 = alloca ptr, align 8
  %4 = alloca i64, align 8
  store ptr %0, ptr %3, align 8
  store i64 %1, ptr %4, align 8
  %5 = load ptr, ptr %3, align 8
  %6 = load i64, ptr %4, align 8
  %7 = call i32 @munmap(ptr noundef %5, i64 noundef %6) #20
  %8 = icmp ne i32 %7, 0
  br i1 %8, label %9, label %17

9:                                                ; preds = %2
  %10 = load ptr, ptr @stderr, align 8
  %11 = call ptr @__errno_location() #28
  %12 = load i32, ptr %11, align 4
  %13 = call ptr @__errno_location() #28
  %14 = load i32, ptr %13, align 4
  %15 = call ptr @strerror(i32 noundef %14) #20
  %16 = call i32 (ptr, ptr, ...) @fprintf(ptr noundef %10, ptr noundef @.str.4, i32 noundef %12, ptr noundef %15) #20
  br label %17

17:                                               ; preds = %9, %2
  ret void
}

; Function Attrs: nounwind uwtable
define internal ptr @zend_mm_chunk_alloc_int(i64 noundef %0, i64 noundef %1) #0 {
  %3 = alloca ptr, align 8
  %4 = alloca i64, align 8
  %5 = alloca ptr, align 8
  %6 = alloca i64, align 8
  %7 = alloca ptr, align 8
  %8 = alloca i64, align 8
  %9 = alloca i64, align 8
  %10 = alloca ptr, align 8
  %11 = alloca i64, align 8
  store i64 %0, ptr %8, align 8
  store i64 %1, ptr %9, align 8
  %12 = load i64, ptr %8, align 8
  %13 = call ptr @zend_mm_mmap(i64 noundef %12)
  store ptr %13, ptr %10, align 8
  %14 = load ptr, ptr %10, align 8
  %15 = icmp eq ptr %14, null
  br i1 %15, label %16, label %17

16:                                               ; preds = %2
  store ptr null, ptr %7, align 8
  br label %85

17:                                               ; preds = %2
  %18 = load ptr, ptr %10, align 8
  %19 = ptrtoint ptr %18 to i64
  %20 = load i64, ptr %9, align 8
  %21 = sub i64 %20, 1
  %22 = and i64 %19, %21
  %23 = icmp eq i64 %22, 0
  br i1 %23, label %24, label %35

24:                                               ; preds = %17
  %25 = load i8, ptr @zend_mm_use_huge_pages, align 1
  %26 = trunc i8 %25 to i1
  br i1 %26, label %27, label %33

27:                                               ; preds = %24
  %28 = load ptr, ptr %10, align 8
  %29 = load i64, ptr %8, align 8
  store ptr %28, ptr %3, align 8
  store i64 %29, ptr %4, align 8
  %30 = load ptr, ptr %3, align 8
  %31 = load i64, ptr %4, align 8
  %32 = call i32 @madvise(ptr noundef %30, i64 noundef %31, i32 noundef 14) #20
  br label %33

33:                                               ; preds = %27, %24
  %34 = load ptr, ptr %10, align 8
  store ptr %34, ptr %7, align 8
  br label %85

35:                                               ; preds = %17
  %36 = load ptr, ptr %10, align 8
  %37 = load i64, ptr %8, align 8
  call void @zend_mm_munmap(ptr noundef %36, i64 noundef %37)
  %38 = load i64, ptr %8, align 8
  %39 = load i64, ptr %9, align 8
  %40 = add i64 %38, %39
  %41 = load i64, ptr @_real_page_size, align 8
  %42 = sub i64 %40, %41
  %43 = call ptr @zend_mm_mmap(i64 noundef %42)
  store ptr %43, ptr %10, align 8
  %44 = load ptr, ptr %10, align 8
  %45 = ptrtoint ptr %44 to i64
  %46 = load i64, ptr %9, align 8
  %47 = sub i64 %46, 1
  %48 = and i64 %45, %47
  store i64 %48, ptr %11, align 8
  %49 = load i64, ptr %11, align 8
  %50 = icmp ne i64 %49, 0
  br i1 %50, label %51, label %63

51:                                               ; preds = %35
  %52 = load i64, ptr %9, align 8
  %53 = load i64, ptr %11, align 8
  %54 = sub i64 %52, %53
  store i64 %54, ptr %11, align 8
  %55 = load ptr, ptr %10, align 8
  %56 = load i64, ptr %11, align 8
  call void @zend_mm_munmap(ptr noundef %55, i64 noundef %56)
  %57 = load ptr, ptr %10, align 8
  %58 = load i64, ptr %11, align 8
  %59 = getelementptr inbounds i8, ptr %57, i64 %58
  store ptr %59, ptr %10, align 8
  %60 = load i64, ptr %11, align 8
  %61 = load i64, ptr %9, align 8
  %62 = sub i64 %61, %60
  store i64 %62, ptr %9, align 8
  br label %63

63:                                               ; preds = %51, %35
  %64 = load i64, ptr %9, align 8
  %65 = load i64, ptr @_real_page_size, align 8
  %66 = icmp ugt i64 %64, %65
  br i1 %66, label %67, label %74

67:                                               ; preds = %63
  %68 = load ptr, ptr %10, align 8
  %69 = load i64, ptr %8, align 8
  %70 = getelementptr inbounds i8, ptr %68, i64 %69
  %71 = load i64, ptr %9, align 8
  %72 = load i64, ptr @_real_page_size, align 8
  %73 = sub i64 %71, %72
  call void @zend_mm_munmap(ptr noundef %70, i64 noundef %73)
  br label %74

74:                                               ; preds = %67, %63
  %75 = load i8, ptr @zend_mm_use_huge_pages, align 1
  %76 = trunc i8 %75 to i1
  br i1 %76, label %77, label %83

77:                                               ; preds = %74
  %78 = load ptr, ptr %10, align 8
  %79 = load i64, ptr %8, align 8
  store ptr %78, ptr %5, align 8
  store i64 %79, ptr %6, align 8
  %80 = load ptr, ptr %5, align 8
  %81 = load i64, ptr %6, align 8
  %82 = call i32 @madvise(ptr noundef %80, i64 noundef %81, i32 noundef 14) #20
  br label %83

83:                                               ; preds = %77, %74
  %84 = load ptr, ptr %10, align 8
  store ptr %84, ptr %7, align 8
  br label %85

85:                                               ; preds = %83, %33, %16
  %86 = load ptr, ptr %7, align 8
  ret ptr %86
}